target datalayout = "e-m:e-p270:32:32-p271:32:32-p272:64:64-i64:64-i128:128-f80:128-n8:16:32:64-S128"
target triple = "x86_64-pc-linux-gnu"

%struct.anon = type { i8 }
%union.anon = type { %struct.anon.2 }
%struct.anon.2 = type { i8, i8, ptr, ptr }
%struct.ABIArgInfo_ = type { i32, i8, %struct.anon, %union.anon }

@.str = private unnamed_addr constant [36 x i8] c"FATAL ERROR %s -> in %s @ in %s:%d \00", align 1
@.str.1 = private unnamed_addr constant [22 x i8] c"Should be unreachable\00", align 1
@__func__.abi_arg_is_indirect = private unnamed_addr constant [20 x i8] c"abi_arg_is_indirect\00", align 1
@.str.2 = private unnamed_addr constant [110 x i8] c"generated/home/dtcxzyw/WorkSpace/Projects/compilers/llvm-opt-benchmark/bench/c3c/c3c/src/compiler/abi/c_abi.c\00", align 1

; Function Attrs: nounwind uwtable
define dso_local zeroext i1 @abi_arg_is_indirect(ptr noundef %0) #0 {
  %2 = alloca i1, align 1
  %3 = alloca ptr, align 8
  store ptr %0, ptr %3, align 8
  %4 = load ptr, ptr %3, align 8
  %5 = getelementptr inbounds %struct.ABIArgInfo_, ptr %4, i32 0, i32 1
  %6 = load i8, ptr %5, align 4
  %7 = and i8 %6, 63
  %8 = zext i8 %7 to i32
  switch i32 %8, label %11 [
    i32 0, label %9
    i32 1, label %9
    i32 3, label %9
    i32 4, label %9
    i32 5, label %9
    i32 8, label %9
    i32 2, label %9
    i32 6, label %9
    i32 7, label %10
  ]

9:                                                ; preds = %1, %1, %1, %1, %1, %1, %1, %1
  store i1 false, ptr %2, align 1
  br label %13

10:                                               ; preds = %1
  store i1 true, ptr %2, align 1
  br label %13

11:                                               ; preds = %1
  br label %12

12:                                               ; preds = %11
  call void (ptr, ...) @error_exit(ptr noundef @.str, ptr noundef @.str.1, ptr noundef @__func__.abi_arg_is_indirect, ptr noundef @.str.2, i32 noundef 59) #4
  unreachable

13:                                               ; preds = %10, %9
  %14 = load i1, ptr %2, align 1
  ret i1 %14
}