; Function Attrs: nounwind uwtable
define dso_local noundef zeroext i1 @abi_arg_is_indirect(ptr nocapture noundef readonly %0) local_unnamed_addr #2 {
  %2 = getelementptr inbounds i8, ptr %0, i64 4
  %3 = load i8, ptr %2, align 4
  %4 = and i8 %3, 63
  %5 = icmp ult i8 %4, 9
  br i1 %5, label %switch.lookup, label %6

6:                                                ; preds = %1
  tail call void (ptr, ...) @error_exit(ptr noundef nonnull @.str, ptr noundef nonnull @.str.1, ptr noundef nonnull @__func__.abi_arg_is_indirect, ptr noundef nonnull @.str.2, i32 noundef 59) #6
  unreachable

switch.lookup:                                    ; preds = %1
  %switch.cast = zext nneg i8 %4 to i9
  %switch.downshift = lshr i9 128, %switch.cast
  %switch.masked = trunc i9 %switch.downshift to i1
  ret i1 %switch.masked
}